; Function Attrs: mustprogress uwtable
define hidden noundef ptr @_ZN7datalog23finite_product_relation13mk_full_innerEP9func_decl(ptr noundef nonnull align 8 dereferenceable(160) %this, ptr noundef %pred) local_unnamed_addr #3 align 2 {
entry:
  %m_other_plugin = getelementptr inbounds i8, ptr %this, i64 88
  %0 = load ptr, ptr %m_other_plugin, align 8
  %m_other_sig = getelementptr inbounds i8, ptr %this, i64 64
  %m_other_kind = getelementptr inbounds i8, ptr %this, i64 96
  %1 = load i32, ptr %m_other_kind, align 8
  %vtable = load ptr, ptr %0, align 8
  %vfn = getelementptr inbounds i8, ptr %vtable, i64 72
  %2 = load ptr, ptr %vfn, align 8
  %call = tail call noundef ptr %2(ptr noundef nonnull align 8 dereferenceable(32) %0, ptr noundef %pred, ptr noundef nonnull align 8 dereferenceable(8) %m_other_sig, i32 noundef %1)
  ret ptr %call
}